target datalayout = "e-m:e-p270:32:32-p271:32:32-p272:64:64-i64:64-i128:128-f80:128-n8:16:32:64-S128"
target triple = "x86_64-pc-linux-gnu"

%class.QPointer = type { %class.QWeakPointer }
%class.QWeakPointer = type { ptr, ptr }
%class.QString = type { %struct.QArrayDataPointer }
%struct.QArrayDataPointer = type { ptr, ptr, i64 }
%class.QVariant = type { %"struct.QVariant::Private" }
%"struct.QVariant::Private" = type { %union.anon, i64 }
%union.anon = type { ptr, [16 x i8] }
%class.QSharedPointer = type { ptr, ptr }
%class.IOGraphDialog = type { %class.WiresharkDialog.base, ptr, ptr, %class.QPointer, ptr, %class.QList.5, %class.QString, ptr, ptr, i32, %struct.nstime_t, i8, ptr, %class.QPoint, %class.QMenu, ptr, i8, i8, i8, i8, i32, %class.QSharedPointer, %class.QSharedPointer.9 }
%class.WiresharkDialog.base = type <{ %class.GeometryStateDialog, ptr, i8, [7 x i8], %class.QString, %class.QList.1, i32, i8 }>
%class.GeometryStateDialog = type { %class.QDialog, %class.QString, ptr }
%class.QDialog = type { %class.QWidget }
%class.QWidget = type { %class.QObject, %class.QPaintDevice.base, ptr }
%class.QObject = type { ptr, %class.QScopedPointer }
%class.QScopedPointer = type { ptr }
%class.QPaintDevice.base = type <{ ptr, i16 }>
%class.QList.1 = type { %struct.QArrayDataPointer.4 }
%struct.QArrayDataPointer.4 = type { ptr, ptr, i64 }
%class.QList.5 = type { %struct.QArrayDataPointer.8 }
%struct.QArrayDataPointer.8 = type { ptr, ptr, i64 }
%struct.nstime_t = type { i64, i32 }
%class.QPoint = type { i32, i32 }
%class.QMenu = type { %class.QWidget }
%class.QSharedPointer.9 = type { ptr, ptr }
%class.Ui_IOGraphDialog = type { ptr, ptr, ptr, ptr, ptr, ptr, ptr, ptr, ptr, ptr, ptr, ptr, ptr, ptr, ptr, ptr, ptr, ptr, ptr, ptr, ptr, ptr, ptr, ptr, ptr, ptr, ptr, ptr, ptr, ptr, ptr, ptr, ptr, ptr, ptr, ptr, ptr, ptr, ptr, ptr, ptr, ptr, ptr, ptr, ptr, ptr }
%class.QCustomPlot = type <{ %class.QWidget, ptr, ptr, ptr, ptr, ptr, %class.QRect, double, ptr, i8, [7 x i8], %class.QList.10, %class.QList.14, %class.QList.18, %class.QList.22, %class.QFlags, %class.QFlags, %class.QFlags.26, i32, i8, [7 x i8], %class.QBrush, %class.QPixmap, %class.QPixmap, i8, [3 x i8], i32, ptr, %class.QFlags.29, i32, i32, [4 x i8], ptr, i8, [7 x i8], %class.QList.30, %class.QPoint, i8, [7 x i8], %class.QPointer.34, %class.QPointer.34, %class.QVariant, %class.QVariant, i8, i8, [6 x i8], double, double, i32, %class.QFlags, i8, [7 x i8] }>
%class.QRect = type { i32, i32, i32, i32 }
%class.QList.10 = type { %struct.QArrayDataPointer.13 }
%struct.QArrayDataPointer.13 = type { ptr, ptr, i64 }
%class.QList.14 = type { %struct.QArrayDataPointer.17 }
%struct.QArrayDataPointer.17 = type { ptr, ptr, i64 }
%class.QList.18 = type { %struct.QArrayDataPointer.21 }
%struct.QArrayDataPointer.21 = type { ptr, ptr, i64 }
%class.QList.22 = type { %struct.QArrayDataPointer.25 }
%struct.QArrayDataPointer.25 = type { ptr, ptr, i64 }
%class.QFlags.26 = type { i32 }
%class.QBrush = type { %"class.std::unique_ptr" }
%"class.std::unique_ptr" = type { %"struct.std::__uniq_ptr_data" }
%"struct.std::__uniq_ptr_data" = type { %"class.std::__uniq_ptr_impl" }
%"class.std::__uniq_ptr_impl" = type { %"class.std::tuple" }
%"class.std::tuple" = type { %"struct.std::_Tuple_impl" }
%"struct.std::_Tuple_impl" = type { %"struct.std::_Head_base.28" }
%"struct.std::_Head_base.28" = type { ptr }
%class.QPixmap = type { %class.QPaintDevice.base, %class.QExplicitlySharedDataPointer }
%class.QExplicitlySharedDataPointer = type { ptr }
%class.QFlags.29 = type { i32 }
%class.QList.30 = type { %struct.QArrayDataPointer.33 }
%struct.QArrayDataPointer.33 = type { ptr, ptr, i64 }
%class.QPointer.34 = type { %class.QWeakPointer }
%class.QFlags = type { i32 }
%class.QBasicAtomicInteger = type { %"struct.std::atomic" }
%"struct.std::atomic" = type { %"struct.std::__atomic_base" }
%"struct.std::__atomic_base" = type { i32 }
%"struct.QtSharedPointer::ExternalRefCountData" = type { %class.QBasicAtomicInteger, %class.QBasicAtomicInteger, ptr }

; Function Attrs: mustprogress nounwind null_pointer_is_valid sspstrong uwtable
define linkonce_odr noundef i32 @_ZNSt13__atomic_baseIiEppEv(ptr noundef align 4 dereferenceable_or_null(4) %0) #7 comdat align 2 {
  %2 = alloca ptr, align 8
  %3 = alloca i32, align 4
  %4 = alloca i32, align 4
  store ptr %0, ptr %2, align 8
  %5 = load ptr, ptr %2, align 8
  %6 = getelementptr inbounds nuw %"struct.std::__atomic_base", ptr %5, i32 0, i32 0
  store i32 1, ptr %3, align 4
  %7 = load i32, ptr %3, align 4
  %8 = atomicrmw add ptr %6, i32 %7 seq_cst, align 4
  %9 = add i32 %8, %7
  store i32 %9, ptr %4, align 4
  %10 = load i32, ptr %4, align 4
  ret i32 %10
}

; Function Attrs: inlinehint mustprogress nounwind null_pointer_is_valid sspstrong uwtable
define linkonce_odr noundef zeroext i1 @_ZN10QAtomicOpsIiE3refIiEEbRSt6atomicIT_E(ptr noundef align 4 dereferenceable(4) %0) #1 comdat align 2 {
  %2 = alloca ptr, align 8
  store ptr %0, ptr %2, align 8
  %3 = load ptr, ptr %2, align 8
  %4 = call noundef i32 @_ZNSt13__atomic_baseIiEppEv(ptr noundef align 4 dereferenceable_or_null(4) %3) #2
  %5 = icmp ne i32 %4, 0
  ret i1 %5
}

; Function Attrs: mustprogress nounwind null_pointer_is_valid sspstrong uwtable
define linkonce_odr noundef zeroext i1 @_ZN19QBasicAtomicIntegerIiE3refEv(ptr noundef align 4 dereferenceable_or_null(4) %0) #7 comdat align 2 personality ptr @__gxx_personality_v0 {
  %2 = alloca ptr, align 8
  store ptr %0, ptr %2, align 8
  %3 = load ptr, ptr %2, align 8
  %4 = getelementptr inbounds nuw %class.QBasicAtomicInteger, ptr %3, i32 0, i32 0
  %5 = invoke noundef zeroext i1 @_ZN10QAtomicOpsIiE3refIiEEbRSt6atomicIT_E(ptr noundef align 4 dereferenceable(4) %4)
          to label %6 unwind label %7

6:                                                ; preds = %1
  ret i1 %5

7:                                                ; preds = %1
  %8 = landingpad { ptr, i32 }
          catch ptr null
  %9 = extractvalue { ptr, i32 } %8, 0
  call void @__clang_call_terminate(ptr %9) #33
  unreachable
}

; Function Attrs: mustprogress nounwind null_pointer_is_valid sspstrong uwtable
define linkonce_odr void @_ZNK14QSharedPointerI13QCPAxisTickerE3refEv(ptr noundef align 8 dereferenceable_or_null(16) %0) #7 comdat align 2 {
  %2 = alloca ptr, align 8
  store ptr %0, ptr %2, align 8
  %3 = load ptr, ptr %2, align 8
  %4 = getelementptr inbounds nuw %class.QSharedPointer, ptr %3, i32 0, i32 1
  %5 = load ptr, ptr %4, align 8
  %6 = getelementptr inbounds nuw %"struct.QtSharedPointer::ExternalRefCountData", ptr %5, i32 0, i32 0
  %7 = call noundef zeroext i1 @_ZN19QBasicAtomicIntegerIiE3refEv(ptr noundef align 4 dereferenceable_or_null(4) %6) #2
  %8 = getelementptr inbounds nuw %class.QSharedPointer, ptr %3, i32 0, i32 1
  %9 = load ptr, ptr %8, align 8
  %10 = getelementptr inbounds nuw %"struct.QtSharedPointer::ExternalRefCountData", ptr %9, i32 0, i32 1
  %11 = call noundef zeroext i1 @_ZN19QBasicAtomicIntegerIiE3refEv(ptr noundef align 4 dereferenceable_or_null(4) %10) #2
  ret void
}

; Function Attrs: mustprogress null_pointer_is_valid sspstrong uwtable
define void @_ZN13IOGraphDialog14scheduleRecalcEb(ptr noundef align 8 dereferenceable_or_null(384) %0, i1 noundef zeroext %1) #3 align 2 {
  %3 = alloca ptr, align 8
  %4 = alloca i8, align 1
  store ptr %0, ptr %3, align 8
  %5 = zext i1 %1 to i8
  store i8 %5, ptr %4, align 1
  %6 = load ptr, ptr %3, align 8
  %7 = getelementptr inbounds nuw %class.IOGraphDialog, ptr %6, i32 0, i32 17
  store i8 1, ptr %7, align 1
  %8 = load i8, ptr %4, align 1, !range !6, !noundef !7
  %9 = trunc i8 %8 to i1
  br i1 %9, label %10, label %11

10:                                               ; preds = %2
  call void @_ZN13IOGraphDialog16updateStatisticsEv(ptr noundef align 8 dereferenceable_or_null(384) %6)
  br label %11

11:                                               ; preds = %10, %2
  ret void
}

; Function Attrs: mustprogress nounwind null_pointer_is_valid sspstrong uwtable
define linkonce_odr void @_ZN14QSharedPointerI13QCPAxisTickerEC2ERKS1_(ptr noundef align 8 dereferenceable_or_null(16) %0, ptr noundef align 8 dereferenceable(16) %1) unnamed_addr #7 comdat align 2 {
  %3 = alloca ptr, align 8
  %4 = alloca ptr, align 8
  store ptr %0, ptr %3, align 8
  store ptr %1, ptr %4, align 8
  %5 = load ptr, ptr %3, align 8
  %6 = getelementptr inbounds nuw %class.QSharedPointer, ptr %5, i32 0, i32 0
  %7 = load ptr, ptr %4, align 8
  %8 = getelementptr inbounds nuw %class.QSharedPointer, ptr %7, i32 0, i32 0
  %9 = load ptr, ptr %8, align 8
  store ptr %9, ptr %6, align 8
  %10 = getelementptr inbounds nuw %class.QSharedPointer, ptr %5, i32 0, i32 1
  %11 = load ptr, ptr %4, align 8
  %12 = getelementptr inbounds nuw %class.QSharedPointer, ptr %11, i32 0, i32 1
  %13 = load ptr, ptr %12, align 8
  store ptr %13, ptr %10, align 8
  %14 = getelementptr inbounds nuw %class.QSharedPointer, ptr %5, i32 0, i32 1
  %15 = load ptr, ptr %14, align 8
  %16 = icmp ne ptr %15, null
  br i1 %16, label %17, label %18

17:                                               ; preds = %2
  call void @_ZNK14QSharedPointerI13QCPAxisTickerE3refEv(ptr noundef align 8 dereferenceable_or_null(16) %5) #2
  br label %18

18:                                               ; preds = %17, %2
  ret void
}

; Function Attrs: mustprogress nounwind null_pointer_is_valid sspstrong uwtable
define linkonce_odr void @_ZN14QSharedPointerI13QCPAxisTickerEC2I21QCPAxisTickerDateTimeTnNSt9enable_ifIXsr3std14is_convertibleIPT_PS0_EE5valueEbE4typeELb1EEERKS_IS5_E(ptr noundef align 8 dereferenceable_or_null(16) %0, ptr noundef align 8 dereferenceable(16) %1) unnamed_addr #7 comdat align 2 {
  %3 = alloca ptr, align 8
  %4 = alloca ptr, align 8
  store ptr %0, ptr %3, align 8
  store ptr %1, ptr %4, align 8
  %5 = load ptr, ptr %3, align 8
  %6 = getelementptr inbounds nuw %class.QSharedPointer, ptr %5, i32 0, i32 0
  %7 = load ptr, ptr %4, align 8
  %8 = getelementptr inbounds nuw %class.QSharedPointer.9, ptr %7, i32 0, i32 0
  %9 = load ptr, ptr %8, align 8
  store ptr %9, ptr %6, align 8
  %10 = getelementptr inbounds nuw %class.QSharedPointer, ptr %5, i32 0, i32 1
  %11 = load ptr, ptr %4, align 8
  %12 = getelementptr inbounds nuw %class.QSharedPointer.9, ptr %11, i32 0, i32 1
  %13 = load ptr, ptr %12, align 8
  store ptr %13, ptr %10, align 8
  %14 = getelementptr inbounds nuw %class.QSharedPointer, ptr %5, i32 0, i32 1
  %15 = load ptr, ptr %14, align 8
  %16 = icmp ne ptr %15, null
  br i1 %16, label %17, label %18

17:                                               ; preds = %2
  call void @_ZNK14QSharedPointerI13QCPAxisTickerE3refEv(ptr noundef align 8 dereferenceable_or_null(16) %5) #2
  br label %18

18:                                               ; preds = %17, %2
  ret void
}

; Function Attrs: mustprogress null_pointer_is_valid sspstrong uwtable
define void @_ZN13IOGraphDialog24actionTimeOfDayTriggeredEb(ptr noundef align 8 dereferenceable_or_null(384) %0, i1 noundef zeroext %1) #3 align 2 personality ptr @__gxx_personality_v0 {
  %3 = alloca ptr, align 8
  %4 = alloca i8, align 1
  %5 = alloca %struct.nstime_t, align 8
  %6 = alloca i8, align 1
  %7 = alloca %class.QSharedPointer, align 8
  %8 = alloca ptr, align 8
  %9 = alloca i32, align 4
  %10 = alloca %class.QSharedPointer, align 8
  store ptr %0, ptr %3, align 8
  %11 = zext i1 %1 to i8
  store i8 %11, ptr %4, align 1
  %12 = load ptr, ptr %3, align 8
  call void @llvm.lifetime.start.p0(i64 16, ptr %5) #2
  %13 = getelementptr inbounds nuw %class.IOGraphDialog, ptr %12, i32 0, i32 10
  call void @nstime_copy(ptr noundef %5, ptr noundef %13)
  call void @llvm.lifetime.start.p0(i64 1, ptr %6) #2
  %14 = getelementptr inbounds nuw %class.IOGraphDialog, ptr %12, i32 0, i32 19
  %15 = load i8, ptr %14, align 1, !range !6, !noundef !7
  %16 = trunc i8 %15 to i1
  %17 = zext i1 %16 to i8
  store i8 %17, ptr %6, align 1
  %18 = load i8, ptr %4, align 1, !range !6, !noundef !7
  %19 = trunc i8 %18 to i1
  br i1 %19, label %20, label %33

20:                                               ; preds = %2
  %21 = getelementptr inbounds nuw %class.IOGraphDialog, ptr %12, i32 0, i32 1
  %22 = load ptr, ptr %21, align 8
  %23 = getelementptr inbounds nuw %class.Ui_IOGraphDialog, ptr %22, i32 0, i32 26
  %24 = load ptr, ptr %23, align 8
  %25 = getelementptr inbounds nuw %class.QCustomPlot, ptr %24, i32 0, i32 1
  %26 = load ptr, ptr %25, align 8
  %27 = getelementptr inbounds nuw %class.IOGraphDialog, ptr %12, i32 0, i32 22
  call void @_ZN14QSharedPointerI13QCPAxisTickerEC2I21QCPAxisTickerDateTimeTnNSt9enable_ifIXsr3std14is_convertibleIPT_PS0_EE5valueEbE4typeELb1EEERKS_IS5_E(ptr noundef align 8 dereferenceable_or_null(16) %7, ptr noundef align 8 dereferenceable(16) %27) #2
  invoke void @_ZN7QCPAxis9setTickerE14QSharedPointerI13QCPAxisTickerE(ptr noundef align 8 dereferenceable_or_null(472) %26, ptr noundef %7)
          to label %28 unwind label %29

28:                                               ; preds = %20
  call void @_ZN14QSharedPointerI13QCPAxisTickerED2Ev(ptr noundef align 8 dereferenceable_or_null(16) %7) #2
  br label %46

29:                                               ; preds = %20
  %30 = landingpad { ptr, i32 }
          cleanup
  %31 = extractvalue { ptr, i32 } %30, 0
  store ptr %31, ptr %8, align 8
  %32 = extractvalue { ptr, i32 } %30, 1
  store i32 %32, ptr %9, align 4
  call void @_ZN14QSharedPointerI13QCPAxisTickerED2Ev(ptr noundef align 8 dereferenceable_or_null(16) %7) #2
  br label %60

33:                                               ; preds = %2
  %34 = getelementptr inbounds nuw %class.IOGraphDialog, ptr %12, i32 0, i32 1
  %35 = load ptr, ptr %34, align 8
  %36 = getelementptr inbounds nuw %class.Ui_IOGraphDialog, ptr %35, i32 0, i32 26
  %37 = load ptr, ptr %36, align 8
  %38 = getelementptr inbounds nuw %class.QCustomPlot, ptr %37, i32 0, i32 1
  %39 = load ptr, ptr %38, align 8
  %40 = getelementptr inbounds nuw %class.IOGraphDialog, ptr %12, i32 0, i32 21
  call void @_ZN14QSharedPointerI13QCPAxisTickerEC2ERKS1_(ptr noundef align 8 dereferenceable_or_null(16) %10, ptr noundef align 8 dereferenceable(16) %40) #2
  invoke void @_ZN7QCPAxis9setTickerE14QSharedPointerI13QCPAxisTickerE(ptr noundef align 8 dereferenceable_or_null(472) %39, ptr noundef %10)
          to label %41 unwind label %42

41:                                               ; preds = %33
  call void @_ZN14QSharedPointerI13QCPAxisTickerED2Ev(ptr noundef align 8 dereferenceable_or_null(16) %10) #2
  br label %46

42:                                               ; preds = %33
  %43 = landingpad { ptr, i32 }
          cleanup
  %44 = extractvalue { ptr, i32 } %43, 0
  store ptr %44, ptr %8, align 8
  %45 = extractvalue { ptr, i32 } %43, 1
  store i32 %45, ptr %9, align 4
  call void @_ZN14QSharedPointerI13QCPAxisTickerED2Ev(ptr noundef align 8 dereferenceable_or_null(16) %10) #2
  br label %60

46:                                               ; preds = %41, %28
  %47 = getelementptr inbounds nuw %class.IOGraphDialog, ptr %12, i32 0, i32 19
  store i8 0, ptr %47, align 1
  call void @_ZN13IOGraphDialog14scheduleRecalcEb(ptr noundef align 8 dereferenceable_or_null(384) %12, i1 noundef zeroext true)
  %48 = load i8, ptr %6, align 1, !range !6, !noundef !7
  %49 = trunc i8 %48 to i1
  %50 = getelementptr inbounds nuw %class.IOGraphDialog, ptr %12, i32 0, i32 19
  %51 = zext i1 %49 to i8
  store i8 %51, ptr %50, align 1
  call void @_ZN13IOGraphDialog12getGraphInfoEv(ptr noundef align 8 dereferenceable_or_null(384) %12)
  %52 = getelementptr inbounds nuw %class.IOGraphDialog, ptr %12, i32 0, i32 10
  call void @nstime_delta(ptr noundef %5, ptr noundef %52, ptr noundef %5)
  %53 = getelementptr inbounds nuw %class.IOGraphDialog, ptr %12, i32 0, i32 1
  %54 = load ptr, ptr %53, align 8
  %55 = getelementptr inbounds nuw %class.Ui_IOGraphDialog, ptr %54, i32 0, i32 26
  %56 = load ptr, ptr %55, align 8
  %57 = getelementptr inbounds nuw %class.QCustomPlot, ptr %56, i32 0, i32 1
  %58 = load ptr, ptr %57, align 8
  %59 = call double @nstime_to_sec(ptr noundef %5)
  call void @_ZN7QCPAxis9moveRangeEd(ptr noundef align 8 dereferenceable_or_null(472) %58, double noundef %59)
  call void @_ZN13IOGraphDialog10updateHintEv(ptr noundef align 8 dereferenceable_or_null(384) %12)
  call void @llvm.lifetime.end.p0(i64 1, ptr %6) #2
  call void @llvm.lifetime.end.p0(i64 16, ptr %5) #2
  ret void

60:                                               ; preds = %42, %29
  call void @llvm.lifetime.end.p0(i64 1, ptr %6) #2
  call void @llvm.lifetime.end.p0(i64 16, ptr %5) #2
  br label %61

61:                                               ; preds = %60
  %62 = load ptr, ptr %8, align 8
  %63 = load i32, ptr %9, align 4
  %64 = insertvalue { ptr, i32 } poison, ptr %62, 0
  %65 = insertvalue { ptr, i32 } %64, i32 %63, 1
  resume { ptr, i32 } %65
}