; Function Attrs: mustprogress null_pointer_is_valid sspstrong uwtable
define void @_ZN13IOGraphDialog24actionTimeOfDayTriggeredEb(ptr noundef align 8 dereferenceable_or_null(384) %0, i1 noundef zeroext %1) #2 align 2 personality ptr @__gxx_personality_v0 {
  %3 = alloca %struct.nstime_t, align 8
  %4 = alloca %class.QSharedPointer, align 8
  %5 = alloca %class.QSharedPointer, align 8
  call void @llvm.lifetime.start.p0(i64 16, ptr nonnull %3) #33
  %6 = getelementptr inbounds nuw i8, ptr %0, i64 256
  call void @nstime_copy(ptr noundef nonnull %3, ptr noundef nonnull %6)
  %7 = getelementptr inbounds nuw i8, ptr %0, i64 347
  %8 = load i8, ptr %7, align 1, !range !12, !noundef !13
  %9 = getelementptr inbounds nuw i8, ptr %0, i64 144
  %10 = load ptr, ptr %9, align 8
  %11 = getelementptr inbounds nuw i8, ptr %10, i64 208
  %12 = load ptr, ptr %11, align 8
  %13 = getelementptr inbounds nuw i8, ptr %12, i64 40
  %14 = load ptr, ptr %13, align 8
  br i1 %1, label %15, label %40

15:                                               ; preds = %2
  %16 = getelementptr inbounds nuw i8, ptr %0, i64 368
  %17 = load ptr, ptr %16, align 8
  store ptr %17, ptr %4, align 8
  %18 = getelementptr inbounds nuw i8, ptr %4, i64 8
  %19 = getelementptr inbounds nuw i8, ptr %0, i64 376
  %20 = load ptr, ptr %19, align 8
  store ptr %20, ptr %18, align 8
  %.not.i = icmp eq ptr %20, null
  br i1 %.not.i, label %_ZN14QSharedPointerI13QCPAxisTickerEC2I21QCPAxisTickerDateTimeTnNSt9enable_ifIXsr3std14is_convertibleIPT_PS0_EE5valueEbE4typeELb1EEERKS_IS5_E.exit, label %21

21:                                               ; preds = %15
  %22 = atomicrmw add ptr %20, i32 1 seq_cst, align 4
  %23 = load ptr, ptr %18, align 8
  %24 = getelementptr inbounds nuw i8, ptr %23, i64 4
  %25 = atomicrmw add ptr %24, i32 1 seq_cst, align 4
  br label %_ZN14QSharedPointerI13QCPAxisTickerEC2I21QCPAxisTickerDateTimeTnNSt9enable_ifIXsr3std14is_convertibleIPT_PS0_EE5valueEbE4typeELb1EEERKS_IS5_E.exit

_ZN14QSharedPointerI13QCPAxisTickerEC2I21QCPAxisTickerDateTimeTnNSt9enable_ifIXsr3std14is_convertibleIPT_PS0_EE5valueEbE4typeELb1EEERKS_IS5_E.exit: ; preds = %15, %21
  invoke void @_ZN7QCPAxis9setTickerE14QSharedPointerI13QCPAxisTickerE(ptr noundef align 8 dereferenceable_or_null(472) %14, ptr noundef nonnull %4)
          to label %26 unwind label %38

26:                                               ; preds = %_ZN14QSharedPointerI13QCPAxisTickerEC2I21QCPAxisTickerDateTimeTnNSt9enable_ifIXsr3std14is_convertibleIPT_PS0_EE5valueEbE4typeELb1EEERKS_IS5_E.exit
  %27 = load ptr, ptr %18, align 8
  %.not.i.i.i = icmp eq ptr %27, null
  br i1 %.not.i.i.i, label %_ZN14QSharedPointerI13QCPAxisTickerED2Ev.exit, label %28

28:                                               ; preds = %26
  %29 = getelementptr inbounds nuw i8, ptr %27, i64 4
  %30 = atomicrmw sub ptr %29, i32 1 seq_cst, align 4
  %.not5.i.i.i = icmp eq i32 %30, 1
  br i1 %.not5.i.i.i, label %31, label %_ZN15QtSharedPointer20ExternalRefCountData7destroyEv.exit.i.i.i

31:                                               ; preds = %28
  %32 = getelementptr inbounds nuw i8, ptr %27, i64 8
  %33 = load ptr, ptr %32, align 8
  invoke void %33(ptr noundef nonnull align 8 dereferenceable_or_null(16) %27)
          to label %_ZN15QtSharedPointer20ExternalRefCountData7destroyEv.exit.i.i.i unwind label %35

_ZN15QtSharedPointer20ExternalRefCountData7destroyEv.exit.i.i.i: ; preds = %31, %28
  %34 = atomicrmw sub ptr %27, i32 1 seq_cst, align 4
  %.not6.i.i.i = icmp eq i32 %34, 1
  br i1 %.not6.i.i.i, label %_ZN14QSharedPointerI13QCPAxisTickerED2Ev.exit.sink.split, label %_ZN14QSharedPointerI13QCPAxisTickerED2Ev.exit

35:                                               ; preds = %31
  %36 = landingpad { ptr, i32 }
          catch ptr null
  %37 = extractvalue { ptr, i32 } %36, 0
  call void @__clang_call_terminate(ptr %37) #37
  unreachable

38:                                               ; preds = %_ZN14QSharedPointerI13QCPAxisTickerEC2I21QCPAxisTickerDateTimeTnNSt9enable_ifIXsr3std14is_convertibleIPT_PS0_EE5valueEbE4typeELb1EEERKS_IS5_E.exit
  %39 = landingpad { ptr, i32 }
          cleanup
  br label %73

40:                                               ; preds = %2
  %41 = getelementptr inbounds nuw i8, ptr %0, i64 352
  %42 = load ptr, ptr %41, align 8
  store ptr %42, ptr %5, align 8
  %43 = getelementptr inbounds nuw i8, ptr %5, i64 8
  %44 = getelementptr inbounds nuw i8, ptr %0, i64 360
  %45 = load ptr, ptr %44, align 8
  store ptr %45, ptr %43, align 8
  %.not.i6 = icmp eq ptr %45, null
  br i1 %.not.i6, label %_ZN14QSharedPointerI13QCPAxisTickerEC2ERKS1_.exit, label %46

46:                                               ; preds = %40
  %47 = atomicrmw add ptr %45, i32 1 seq_cst, align 4
  %48 = load ptr, ptr %43, align 8
  %49 = getelementptr inbounds nuw i8, ptr %48, i64 4
  %50 = atomicrmw add ptr %49, i32 1 seq_cst, align 4
  br label %_ZN14QSharedPointerI13QCPAxisTickerEC2ERKS1_.exit

_ZN14QSharedPointerI13QCPAxisTickerEC2ERKS1_.exit: ; preds = %40, %46
  invoke void @_ZN7QCPAxis9setTickerE14QSharedPointerI13QCPAxisTickerE(ptr noundef align 8 dereferenceable_or_null(472) %14, ptr noundef nonnull %5)
          to label %51 unwind label %63

51:                                               ; preds = %_ZN14QSharedPointerI13QCPAxisTickerEC2ERKS1_.exit
  %52 = load ptr, ptr %43, align 8
  %.not.i.i.i7 = icmp eq ptr %52, null
  br i1 %.not.i.i.i7, label %_ZN14QSharedPointerI13QCPAxisTickerED2Ev.exit, label %53

53:                                               ; preds = %51
  %54 = getelementptr inbounds nuw i8, ptr %52, i64 4
  %55 = atomicrmw sub ptr %54, i32 1 seq_cst, align 4
  %.not5.i.i.i8 = icmp eq i32 %55, 1
  br i1 %.not5.i.i.i8, label %56, label %_ZN15QtSharedPointer20ExternalRefCountData7destroyEv.exit.i.i.i9

56:                                               ; preds = %53
  %57 = getelementptr inbounds nuw i8, ptr %52, i64 8
  %58 = load ptr, ptr %57, align 8
  invoke void %58(ptr noundef nonnull align 8 dereferenceable_or_null(16) %52)
          to label %_ZN15QtSharedPointer20ExternalRefCountData7destroyEv.exit.i.i.i9 unwind label %60

_ZN15QtSharedPointer20ExternalRefCountData7destroyEv.exit.i.i.i9: ; preds = %56, %53
  %59 = atomicrmw sub ptr %52, i32 1 seq_cst, align 4
  %.not6.i.i.i10 = icmp eq i32 %59, 1
  br i1 %.not6.i.i.i10, label %_ZN14QSharedPointerI13QCPAxisTickerED2Ev.exit.sink.split, label %_ZN14QSharedPointerI13QCPAxisTickerED2Ev.exit

60:                                               ; preds = %56
  %61 = landingpad { ptr, i32 }
          catch ptr null
  %62 = extractvalue { ptr, i32 } %61, 0
  call void @__clang_call_terminate(ptr %62) #37
  unreachable

63:                                               ; preds = %_ZN14QSharedPointerI13QCPAxisTickerEC2ERKS1_.exit
  %64 = landingpad { ptr, i32 }
          cleanup
  br label %73

_ZN14QSharedPointerI13QCPAxisTickerED2Ev.exit.sink.split: ; preds = %_ZN15QtSharedPointer20ExternalRefCountData7destroyEv.exit.i.i.i9, %_ZN15QtSharedPointer20ExternalRefCountData7destroyEv.exit.i.i.i
  %.sink = phi ptr [ %27, %_ZN15QtSharedPointer20ExternalRefCountData7destroyEv.exit.i.i.i ], [ %52, %_ZN15QtSharedPointer20ExternalRefCountData7destroyEv.exit.i.i.i9 ]
  call void @_ZdlPv(ptr noundef nonnull %.sink) #33
  br label %_ZN14QSharedPointerI13QCPAxisTickerED2Ev.exit

_ZN14QSharedPointerI13QCPAxisTickerED2Ev.exit:    ; preds = %_ZN14QSharedPointerI13QCPAxisTickerED2Ev.exit.sink.split, %_ZN15QtSharedPointer20ExternalRefCountData7destroyEv.exit.i.i.i9, %51, %_ZN15QtSharedPointer20ExternalRefCountData7destroyEv.exit.i.i.i, %26
  store i8 0, ptr %7, align 1
  %65 = getelementptr inbounds nuw i8, ptr %0, i64 345
  store i8 1, ptr %65, align 1
  call void @_ZN13IOGraphDialog16updateStatisticsEv(ptr noundef align 8 dereferenceable_or_null(384) %0)
  store i8 %8, ptr %7, align 1
  call void @_ZN13IOGraphDialog12getGraphInfoEv(ptr noundef align 8 dereferenceable_or_null(384) %0)
  call void @nstime_delta(ptr noundef nonnull %3, ptr noundef nonnull %6, ptr noundef nonnull %3)
  %66 = getelementptr inbounds nuw i8, ptr %0, i64 144
  %67 = load ptr, ptr %66, align 8
  %68 = getelementptr inbounds nuw i8, ptr %67, i64 208
  %69 = load ptr, ptr %68, align 8
  %70 = getelementptr inbounds nuw i8, ptr %69, i64 40
  %71 = load ptr, ptr %70, align 8
  %72 = call double @nstime_to_sec(ptr noundef nonnull %3)
  call void @_ZN7QCPAxis9moveRangeEd(ptr noundef align 8 dereferenceable_or_null(472) %71, double noundef %72)
  call void @_ZN13IOGraphDialog10updateHintEv(ptr noundef align 8 dereferenceable_or_null(384) %0)
  call void @llvm.lifetime.end.p0(i64 16, ptr nonnull %3) #33
  ret void

73:                                               ; preds = %63, %38
  %.sink12 = phi ptr [ %5, %63 ], [ %4, %38 ]
  %.pn = phi { ptr, i32 } [ %64, %63 ], [ %39, %38 ]
  call void @_ZN14QSharedPointerI13QCPAxisTickerED2Ev(ptr noundef nonnull align 8 dereferenceable_or_null(16) %.sink12) #33
  call void @llvm.lifetime.end.p0(i64 16, ptr nonnull %3) #33
  resume { ptr, i32 } %.pn
}